target datalayout = "e-m:e-p270:32:32-p271:32:32-p272:64:64-i64:64-i128:128-f80:128-n8:16:32:64-S128"
target triple = "x86_64-pc-linux-gnu"

; Function Attrs: nounwind uwtable
define i32 @ModifiedGS(ptr noundef %0, ptr noundef %1, i32 noundef %2, i32 noundef %3, ptr noundef %4) #0 {
  %6 = alloca i32, align 4
  %7 = alloca ptr, align 8
  %8 = alloca ptr, align 8
  %9 = alloca i32, align 4
  %10 = alloca i32, align 4
  %11 = alloca ptr, align 8
  %12 = alloca i32, align 4
  %13 = alloca i32, align 4
  %14 = alloca i32, align 4
  %15 = alloca double, align 8
  %16 = alloca double, align 8
  %17 = alloca double, align 8
  %18 = alloca double, align 8
  %19 = alloca i32, align 4
  store ptr %0, ptr %7, align 8, !tbaa !3
  store ptr %1, ptr %8, align 8, !tbaa !8
  store i32 %2, ptr %9, align 4, !tbaa !10
  store i32 %3, ptr %10, align 4, !tbaa !10
  store ptr %4, ptr %11, align 8, !tbaa !12
  call void @llvm.lifetime.start.p0(i64 4, ptr %12) #4
  call void @llvm.lifetime.start.p0(i64 4, ptr %13) #4
  call void @llvm.lifetime.start.p0(i64 4, ptr %14) #4
  call void @llvm.lifetime.start.p0(i64 8, ptr %15) #4
  call void @llvm.lifetime.start.p0(i64 8, ptr %16) #4
  call void @llvm.lifetime.start.p0(i64 8, ptr %17) #4
  call void @llvm.lifetime.start.p0(i64 8, ptr %18) #4
  %20 = load ptr, ptr %7, align 8, !tbaa !3
  %21 = load i32, ptr %9, align 4, !tbaa !10
  %22 = sext i32 %21 to i64
  %23 = getelementptr inbounds ptr, ptr %20, i64 %22
  %24 = load ptr, ptr %23, align 8, !tbaa !14
  %25 = load ptr, ptr %7, align 8, !tbaa !3
  %26 = load i32, ptr %9, align 4, !tbaa !10
  %27 = sext i32 %26 to i64
  %28 = getelementptr inbounds ptr, ptr %25, i64 %27
  %29 = load ptr, ptr %28, align 8, !tbaa !14
  %30 = call double @N_VDotProd(ptr noundef %24, ptr noundef %29)
  %31 = call double @SUNRsqrt(double noundef %30)
  store double %31, ptr %17, align 8, !tbaa !16
  %32 = load i32, ptr %9, align 4, !tbaa !10
  %33 = sub nsw i32 %32, 1
  store i32 %33, ptr %13, align 4, !tbaa !10
  %34 = load i32, ptr %9, align 4, !tbaa !10
  %35 = load i32, ptr %10, align 4, !tbaa !10
  %36 = sub nsw i32 %34, %35
  %37 = icmp sgt i32 %36, 0
  br i1 %37, label %38, label %42

38:                                               ; preds = %5
  %39 = load i32, ptr %9, align 4, !tbaa !10
  %40 = load i32, ptr %10, align 4, !tbaa !10
  %41 = sub nsw i32 %39, %40
  br label %43

42:                                               ; preds = %5
  br label %43

43:                                               ; preds = %42, %38
  %44 = phi i32 [ %41, %38 ], [ 0, %42 ]
  store i32 %44, ptr %14, align 4, !tbaa !10
  %45 = load i32, ptr %14, align 4, !tbaa !10
  store i32 %45, ptr %12, align 4, !tbaa !10
  br label %46

46:                                               ; preds = %95, %43
  %47 = load i32, ptr %12, align 4, !tbaa !10
  %48 = load i32, ptr %9, align 4, !tbaa !10
  %49 = icmp slt i32 %47, %48
  br i1 %49, label %50, label %98

50:                                               ; preds = %46
  %51 = load ptr, ptr %7, align 8, !tbaa !3
  %52 = load i32, ptr %12, align 4, !tbaa !10
  %53 = sext i32 %52 to i64
  %54 = getelementptr inbounds ptr, ptr %51, i64 %53
  %55 = load ptr, ptr %54, align 8, !tbaa !14
  %56 = load ptr, ptr %7, align 8, !tbaa !3
  %57 = load i32, ptr %9, align 4, !tbaa !10
  %58 = sext i32 %57 to i64
  %59 = getelementptr inbounds ptr, ptr %56, i64 %58
  %60 = load ptr, ptr %59, align 8, !tbaa !14
  %61 = call double @N_VDotProd(ptr noundef %55, ptr noundef %60)
  %62 = load ptr, ptr %8, align 8, !tbaa !8
  %63 = load i32, ptr %12, align 4, !tbaa !10
  %64 = sext i32 %63 to i64
  %65 = getelementptr inbounds ptr, ptr %62, i64 %64
  %66 = load ptr, ptr %65, align 8, !tbaa !12
  %67 = load i32, ptr %13, align 4, !tbaa !10
  %68 = sext i32 %67 to i64
  %69 = getelementptr inbounds double, ptr %66, i64 %68
  store double %61, ptr %69, align 8, !tbaa !16
  %70 = load ptr, ptr %7, align 8, !tbaa !3
  %71 = load i32, ptr %9, align 4, !tbaa !10
  %72 = sext i32 %71 to i64
  %73 = getelementptr inbounds ptr, ptr %70, i64 %72
  %74 = load ptr, ptr %73, align 8, !tbaa !14
  %75 = load ptr, ptr %8, align 8, !tbaa !8
  %76 = load i32, ptr %12, align 4, !tbaa !10
  %77 = sext i32 %76 to i64
  %78 = getelementptr inbounds ptr, ptr %75, i64 %77
  %79 = load ptr, ptr %78, align 8, !tbaa !12
  %80 = load i32, ptr %13, align 4, !tbaa !10
  %81 = sext i32 %80 to i64
  %82 = getelementptr inbounds double, ptr %79, i64 %81
  %83 = load double, ptr %82, align 8, !tbaa !16
  %84 = fneg double %83
  %85 = load ptr, ptr %7, align 8, !tbaa !3
  %86 = load i32, ptr %12, align 4, !tbaa !10
  %87 = sext i32 %86 to i64
  %88 = getelementptr inbounds ptr, ptr %85, i64 %87
  %89 = load ptr, ptr %88, align 8, !tbaa !14
  %90 = load ptr, ptr %7, align 8, !tbaa !3
  %91 = load i32, ptr %9, align 4, !tbaa !10
  %92 = sext i32 %91 to i64
  %93 = getelementptr inbounds ptr, ptr %90, i64 %92
  %94 = load ptr, ptr %93, align 8, !tbaa !14
  call void @N_VLinearSum(double noundef 1.000000e+00, ptr noundef %74, double noundef %84, ptr noundef %89, ptr noundef %94)
  br label %95

95:                                               ; preds = %50
  %96 = load i32, ptr %12, align 4, !tbaa !10
  %97 = add nsw i32 %96, 1
  store i32 %97, ptr %12, align 4, !tbaa !10
  br label %46, !llvm.loop !18

98:                                               ; preds = %46
  %99 = load ptr, ptr %7, align 8, !tbaa !3
  %100 = load i32, ptr %9, align 4, !tbaa !10
  %101 = sext i32 %100 to i64
  %102 = getelementptr inbounds ptr, ptr %99, i64 %101
  %103 = load ptr, ptr %102, align 8, !tbaa !14
  %104 = load ptr, ptr %7, align 8, !tbaa !3
  %105 = load i32, ptr %9, align 4, !tbaa !10
  %106 = sext i32 %105 to i64
  %107 = getelementptr inbounds ptr, ptr %104, i64 %106
  %108 = load ptr, ptr %107, align 8, !tbaa !14
  %109 = call double @N_VDotProd(ptr noundef %103, ptr noundef %108)
  %110 = call double @SUNRsqrt(double noundef %109)
  %111 = load ptr, ptr %11, align 8, !tbaa !12
  store double %110, ptr %111, align 8, !tbaa !16
  %112 = load double, ptr %17, align 8, !tbaa !16
  %113 = fmul double 1.000000e+03, %112
  store double %113, ptr %18, align 8, !tbaa !16
  %114 = load double, ptr %18, align 8, !tbaa !16
  %115 = load ptr, ptr %11, align 8, !tbaa !12
  %116 = load double, ptr %115, align 8, !tbaa !16
  %117 = fadd double %114, %116
  %118 = load double, ptr %18, align 8, !tbaa !16
  %119 = fcmp une double %117, %118
  br i1 %119, label %120, label %121

120:                                              ; preds = %98
  store i32 0, ptr %6, align 4
  store i32 1, ptr %19, align 4
  br label %212

121:                                              ; preds = %98
  store double 0.000000e+00, ptr %15, align 8, !tbaa !16
  %122 = load i32, ptr %14, align 4, !tbaa !10
  store i32 %122, ptr %12, align 4, !tbaa !10
  br label %123

123:                                              ; preds = %188, %121
  %124 = load i32, ptr %12, align 4, !tbaa !10
  %125 = load i32, ptr %9, align 4, !tbaa !10
  %126 = icmp slt i32 %124, %125
  br i1 %126, label %127, label %191

127:                                              ; preds = %123
  %128 = load ptr, ptr %7, align 8, !tbaa !3
  %129 = load i32, ptr %12, align 4, !tbaa !10
  %130 = sext i32 %129 to i64
  %131 = getelementptr inbounds ptr, ptr %128, i64 %130
  %132 = load ptr, ptr %131, align 8, !tbaa !14
  %133 = load ptr, ptr %7, align 8, !tbaa !3
  %134 = load i32, ptr %9, align 4, !tbaa !10
  %135 = sext i32 %134 to i64
  %136 = getelementptr inbounds ptr, ptr %133, i64 %135
  %137 = load ptr, ptr %136, align 8, !tbaa !14
  %138 = call double @N_VDotProd(ptr noundef %132, ptr noundef %137)
  store double %138, ptr %16, align 8, !tbaa !16
  %139 = load ptr, ptr %8, align 8, !tbaa !8
  %140 = load i32, ptr %12, align 4, !tbaa !10
  %141 = sext i32 %140 to i64
  %142 = getelementptr inbounds ptr, ptr %139, i64 %141
  %143 = load ptr, ptr %142, align 8, !tbaa !12
  %144 = load i32, ptr %13, align 4, !tbaa !10
  %145 = sext i32 %144 to i64
  %146 = getelementptr inbounds double, ptr %143, i64 %145
  %147 = load double, ptr %146, align 8, !tbaa !16
  %148 = fmul double 1.000000e+03, %147
  store double %148, ptr %18, align 8, !tbaa !16
  %149 = load double, ptr %18, align 8, !tbaa !16
  %150 = load double, ptr %16, align 8, !tbaa !16
  %151 = fadd double %149, %150
  %152 = load double, ptr %18, align 8, !tbaa !16
  %153 = fcmp oeq double %151, %152
  br i1 %153, label %154, label %155

154:                                              ; preds = %127
  br label %188

155:                                              ; preds = %127
  %156 = load double, ptr %16, align 8, !tbaa !16
  %157 = load ptr, ptr %8, align 8, !tbaa !8
  %158 = load i32, ptr %12, align 4, !tbaa !10
  %159 = sext i32 %158 to i64
  %160 = getelementptr inbounds ptr, ptr %157, i64 %159
  %161 = load ptr, ptr %160, align 8, !tbaa !12
  %162 = load i32, ptr %13, align 4, !tbaa !10
  %163 = sext i32 %162 to i64
  %164 = getelementptr inbounds double, ptr %161, i64 %163
  %165 = load double, ptr %164, align 8, !tbaa !16
  %166 = fadd double %165, %156
  store double %166, ptr %164, align 8, !tbaa !16
  %167 = load ptr, ptr %7, align 8, !tbaa !3
  %168 = load i32, ptr %9, align 4, !tbaa !10
  %169 = sext i32 %168 to i64
  %170 = getelementptr inbounds ptr, ptr %167, i64 %169
  %171 = load ptr, ptr %170, align 8, !tbaa !14
  %172 = load double, ptr %16, align 8, !tbaa !16
  %173 = fneg double %172
  %174 = load ptr, ptr %7, align 8, !tbaa !3
  %175 = load i32, ptr %12, align 4, !tbaa !10
  %176 = sext i32 %175 to i64
  %177 = getelementptr inbounds ptr, ptr %174, i64 %176
  %178 = load ptr, ptr %177, align 8, !tbaa !14
  %179 = load ptr, ptr %7, align 8, !tbaa !3
  %180 = load i32, ptr %9, align 4, !tbaa !10
  %181 = sext i32 %180 to i64
  %182 = getelementptr inbounds ptr, ptr %179, i64 %181
  %183 = load ptr, ptr %182, align 8, !tbaa !14
  call void @N_VLinearSum(double noundef 1.000000e+00, ptr noundef %171, double noundef %173, ptr noundef %178, ptr noundef %183)
  %184 = load double, ptr %16, align 8, !tbaa !16
  %185 = load double, ptr %16, align 8, !tbaa !16
  %186 = load double, ptr %15, align 8, !tbaa !16
  %187 = call double @llvm.fmuladd.f64(double %184, double %185, double %186)
  store double %187, ptr %15, align 8, !tbaa !16
  br label %188

188:                                              ; preds = %155, %154
  %189 = load i32, ptr %12, align 4, !tbaa !10
  %190 = add nsw i32 %189, 1
  store i32 %190, ptr %12, align 4, !tbaa !10
  br label %123, !llvm.loop !20

191:                                              ; preds = %123
  %192 = load double, ptr %15, align 8, !tbaa !16
  %193 = fcmp une double %192, 0.000000e+00
  br i1 %193, label %194, label %211

194:                                              ; preds = %191
  %195 = load ptr, ptr %11, align 8, !tbaa !12
  %196 = load double, ptr %195, align 8, !tbaa !16
  %197 = load ptr, ptr %11, align 8, !tbaa !12
  %198 = load double, ptr %197, align 8, !tbaa !16
  %199 = load double, ptr %15, align 8, !tbaa !16
  %200 = fneg double %199
  %201 = call double @llvm.fmuladd.f64(double %196, double %198, double %200)
  store double %201, ptr %16, align 8, !tbaa !16
  %202 = load double, ptr %16, align 8, !tbaa !16
  %203 = fcmp ogt double %202, 0.000000e+00
  br i1 %203, label %204, label %207

204:                                              ; preds = %194
  %205 = load double, ptr %16, align 8, !tbaa !16
  %206 = call double @SUNRsqrt(double noundef %205)
  br label %208

207:                                              ; preds = %194
  br label %208

208:                                              ; preds = %207, %204
  %209 = phi double [ %206, %204 ], [ 0.000000e+00, %207 ]
  %210 = load ptr, ptr %11, align 8, !tbaa !12
  store double %209, ptr %210, align 8, !tbaa !16
  br label %211

211:                                              ; preds = %208, %191
  store i32 0, ptr %6, align 4
  store i32 1, ptr %19, align 4
  br label %212

212:                                              ; preds = %211, %120
  call void @llvm.lifetime.end.p0(i64 8, ptr %18) #4
  call void @llvm.lifetime.end.p0(i64 8, ptr %17) #4
  call void @llvm.lifetime.end.p0(i64 8, ptr %16) #4
  call void @llvm.lifetime.end.p0(i64 8, ptr %15) #4
  call void @llvm.lifetime.end.p0(i64 4, ptr %14) #4
  call void @llvm.lifetime.end.p0(i64 4, ptr %13) #4
  call void @llvm.lifetime.end.p0(i64 4, ptr %12) #4
  %213 = load i32, ptr %6, align 4
  ret i32 %213
}