; Function Attrs: nounwind uwtable
define noundef i32 @ModifiedGS(ptr noundef readonly captures(none) %0, ptr noundef readonly captures(none) %1, i32 noundef %2, i32 noundef %3, ptr noundef captures(none) %4) local_unnamed_addr #0 {
  %6 = sext i32 %2 to i64
  %7 = getelementptr inbounds ptr, ptr %0, i64 %6
  %8 = load ptr, ptr %7, align 8, !tbaa !3
  %9 = tail call double @N_VDotProd(ptr noundef %8, ptr noundef %8) #5
  %10 = tail call double @SUNRsqrt(double noundef %9) #5
  %11 = add nsw i32 %2, -1
  %12 = sub nsw i32 %2, %3
  %13 = tail call i32 @llvm.smax.i32(i32 %12, i32 0)
  %14 = icmp sge i32 %13, %2
  br i1 %14, label %._crit_edge, label %.lr.ph

.lr.ph:                                           ; preds = %5
  %15 = zext nneg i32 %11 to i64
  %16 = zext nneg i32 %13 to i64
  %wide.trip.count = zext nneg i32 %2 to i64
  br label %17

17:                                               ; preds = %.lr.ph, %17
  %indvars.iv = phi i64 [ %16, %.lr.ph ], [ %indvars.iv.next, %17 ]
  %18 = getelementptr inbounds nuw ptr, ptr %0, i64 %indvars.iv
  %19 = load ptr, ptr %18, align 8, !tbaa !3
  %20 = load ptr, ptr %7, align 8, !tbaa !3
  %21 = tail call double @N_VDotProd(ptr noundef %19, ptr noundef %20) #5
  %22 = getelementptr inbounds nuw ptr, ptr %1, i64 %indvars.iv
  %23 = load ptr, ptr %22, align 8, !tbaa !8
  %24 = getelementptr inbounds nuw double, ptr %23, i64 %15
  store double %21, ptr %24, align 8, !tbaa !10
  %25 = load ptr, ptr %7, align 8, !tbaa !3
  %26 = fneg double %21
  %27 = load ptr, ptr %18, align 8, !tbaa !3
  tail call void @N_VLinearSum(double noundef 1.000000e+00, ptr noundef %25, double noundef %26, ptr noundef %27, ptr noundef %25) #5
  %indvars.iv.next = add nuw nsw i64 %indvars.iv, 1
  %exitcond.not = icmp eq i64 %indvars.iv.next, %wide.trip.count
  br i1 %exitcond.not, label %._crit_edge, label %17, !llvm.loop !12

._crit_edge:                                      ; preds = %17, %5
  %28 = load ptr, ptr %7, align 8, !tbaa !3
  %29 = tail call double @N_VDotProd(ptr noundef %28, ptr noundef %28) #5
  %30 = tail call double @SUNRsqrt(double noundef %29) #5
  store double %30, ptr %4, align 8, !tbaa !10
  %31 = fmul double %10, 1.000000e+03
  %32 = fadd double %31, %30
  %33 = fcmp une double %32, %31
  %brmerge = or i1 %33, %14
  br i1 %brmerge, label %._crit_edge81.thread, label %.lr.ph80

.lr.ph80:                                         ; preds = %._crit_edge
  %34 = zext nneg i32 %11 to i64
  %35 = zext nneg i32 %13 to i64
  %wide.trip.count86 = zext nneg i32 %2 to i64
  br label %36

36:                                               ; preds = %.lr.ph80, %54
  %indvars.iv83 = phi i64 [ %35, %.lr.ph80 ], [ %indvars.iv.next84, %54 ]
  %.07379 = phi double [ 0.000000e+00, %.lr.ph80 ], [ %.1, %54 ]
  %37 = getelementptr inbounds nuw ptr, ptr %0, i64 %indvars.iv83
  %38 = load ptr, ptr %37, align 8, !tbaa !3
  %39 = load ptr, ptr %7, align 8, !tbaa !3
  %40 = tail call double @N_VDotProd(ptr noundef %38, ptr noundef %39) #5
  %41 = getelementptr inbounds nuw ptr, ptr %1, i64 %indvars.iv83
  %42 = load ptr, ptr %41, align 8, !tbaa !8
  %43 = getelementptr inbounds nuw double, ptr %42, i64 %34
  %44 = load double, ptr %43, align 8, !tbaa !10
  %45 = fmul double %44, 1.000000e+03
  %46 = fadd double %40, %45
  %47 = fcmp oeq double %46, %45
  br i1 %47, label %54, label %48

48:                                               ; preds = %36
  %49 = fadd double %40, %44
  store double %49, ptr %43, align 8, !tbaa !10
  %50 = load ptr, ptr %7, align 8, !tbaa !3
  %51 = fneg double %40
  %52 = load ptr, ptr %37, align 8, !tbaa !3
  tail call void @N_VLinearSum(double noundef 1.000000e+00, ptr noundef %50, double noundef %51, ptr noundef %52, ptr noundef %50) #5
  %53 = tail call double @llvm.fmuladd.f64(double %40, double %40, double %.07379)
  br label %54

54:                                               ; preds = %36, %48
  %.1 = phi double [ %.07379, %36 ], [ %53, %48 ]
  %indvars.iv.next84 = add nuw nsw i64 %indvars.iv83, 1
  %exitcond87.not = icmp eq i64 %indvars.iv.next84, %wide.trip.count86
  br i1 %exitcond87.not, label %._crit_edge81, label %36, !llvm.loop !14

._crit_edge81:                                    ; preds = %54
  %55 = fcmp une double %.1, 0.000000e+00
  br i1 %55, label %56, label %._crit_edge81.thread

56:                                               ; preds = %._crit_edge81
  %57 = load double, ptr %4, align 8, !tbaa !10
  %58 = fneg double %.1
  %59 = tail call double @llvm.fmuladd.f64(double %57, double %57, double %58)
  %60 = fcmp ogt double %59, 0.000000e+00
  br i1 %60, label %61, label %63

61:                                               ; preds = %56
  %62 = tail call double @SUNRsqrt(double noundef %59) #5
  br label %63

63:                                               ; preds = %56, %61
  %64 = phi double [ %62, %61 ], [ 0.000000e+00, %56 ]
  store double %64, ptr %4, align 8, !tbaa !10
  br label %._crit_edge81.thread

._crit_edge81.thread:                             ; preds = %._crit_edge, %._crit_edge81, %63
  ret i32 0
}